; Function Attrs: nounwind uwtable
define internal range(i32 0, 3) i32 @lj_ffh_bit_bnot(ptr noundef %0) #0 {
  %2 = alloca i32, align 4
  call void @llvm.lifetime.start.p0(i64 4, ptr nonnull %2) #5
  store i32 0, ptr %2, align 4, !tbaa !4
  %3 = call i64 @lj_carith_check64(ptr noundef %0, i32 noundef 1, ptr noundef nonnull %2) #5
  %4 = load i32, ptr %2, align 4, !tbaa !4
  %.not = icmp eq i32 %4, 0
  br i1 %.not, label %17, label %5

5:                                                ; preds = %1
  %6 = xor i64 %3, -1
  %7 = call ptr @lj_mem_newgco(ptr noundef %0, i64 noundef 24) #5
  %8 = getelementptr inbounds nuw i8, ptr %7, i64 9
  store i8 10, ptr %8, align 1, !tbaa !16
  %9 = trunc i32 %4 to i16
  %10 = getelementptr inbounds nuw i8, ptr %7, i64 10
  store i16 %9, ptr %10, align 2, !tbaa !19
  %11 = getelementptr inbounds nuw i8, ptr %7, i64 16
  store i64 %6, ptr %11, align 8, !tbaa !20
  %12 = getelementptr inbounds nuw i8, ptr %0, i64 32
  %13 = load ptr, ptr %12, align 8, !tbaa !8
  %14 = getelementptr inbounds i8, ptr %13, i64 -16
  %15 = ptrtoint ptr %7 to i64
  %16 = or i64 %15, -1548112371908608
  store i64 %16, ptr %14, align 8, !tbaa !15
  br label %17

17:                                               ; preds = %1, %5
  %18 = phi i32 [ 2, %5 ], [ 0, %1 ]
  call void @llvm.lifetime.end.p0(i64 4, ptr nonnull %2) #5
  ret i32 %18
}